; Function Attrs: mustprogress uwtable
define noundef i64 @_ZNK6google8protobuf2io19EpsCopyOutputStream9ByteCountEPh(ptr noundef nonnull readonly align 8 captures(none) dereferenceable(59) %0, ptr noundef %1) local_unnamed_addr #4 align 2 {
  %3 = load ptr, ptr %0, align 8, !tbaa !57
  %4 = ptrtoint ptr %3 to i64
  %5 = ptrtoint ptr %1 to i64
  %6 = sub i64 %4, %5
  %7 = getelementptr inbounds nuw i8, ptr %0, i64 8
  %8 = load ptr, ptr %7, align 8, !tbaa !58
  %.not = icmp eq ptr %8, null
  %9 = select i1 %.not, i64 16, i64 0
  %10 = add nsw i64 %6, %9
  %11 = getelementptr inbounds nuw i8, ptr %0, i64 48
  %12 = load ptr, ptr %11, align 8, !tbaa !53
  %13 = load ptr, ptr %12, align 8, !tbaa !18
  %14 = getelementptr inbounds nuw i8, ptr %13, i64 32
  %15 = load ptr, ptr %14, align 8
  %16 = tail call noundef i64 %15(ptr noundef nonnull align 8 dereferenceable(8) %12)
  %sext = shl i64 %10, 32
  %17 = ashr exact i64 %sext, 32
  %18 = sub nsw i64 %16, %17
  ret i64 %18
}